; Function Attrs: mustprogress nounwind uwtable
define hidden noundef ptr @_ZNK10CastLLNode5ValueEP8PhaseGVN(ptr nocapture noundef nonnull readonly align 8 dereferenceable(80) %0, ptr nocapture noundef readonly %1) unnamed_addr #0 align 2 {
  %3 = getelementptr inbounds i8, ptr %0, i64 8
  %4 = load ptr, ptr %3, align 8
  %5 = load ptr, ptr %4, align 8
  %.not.i = icmp eq ptr %5, null
  %.phi.trans.insert.i = getelementptr inbounds i8, ptr %1, i64 40
  %.pre.i = load ptr, ptr %.phi.trans.insert.i, align 8
  br i1 %.not.i, label %._crit_edge.i, label %6

._crit_edge.i:                                    ; preds = %2
  %.phi.trans.insert14.i = getelementptr inbounds i8, ptr %.pre.i, i64 16
  %.pre15.i = load ptr, ptr %.phi.trans.insert14.i, align 8
  br label %16

6:                                                ; preds = %2
  %7 = getelementptr inbounds i8, ptr %5, i64 40
  %8 = load i32, ptr %7, align 8
  %9 = getelementptr inbounds i8, ptr %.pre.i, i64 16
  %10 = load ptr, ptr %9, align 8
  %11 = zext i32 %8 to i64
  %12 = getelementptr inbounds ptr, ptr %10, i64 %11
  %13 = load ptr, ptr %12, align 8
  %14 = load ptr, ptr @_ZN4Type3TOPE, align 8
  %15 = icmp eq ptr %13, %14
  br i1 %15, label %_ZNK18ConstraintCastNode5ValueEP8PhaseGVN.exit, label %16

16:                                               ; preds = %6, %._crit_edge.i
  %17 = phi ptr [ %.pre15.i, %._crit_edge.i ], [ %10, %6 ]
  %18 = getelementptr inbounds i8, ptr %4, i64 8
  %19 = load ptr, ptr %18, align 8
  %20 = getelementptr inbounds i8, ptr %19, i64 40
  %21 = load i32, ptr %20, align 8
  %22 = zext i32 %21 to i64
  %23 = getelementptr inbounds ptr, ptr %17, i64 %22
  %24 = load ptr, ptr %23, align 8
  %25 = getelementptr inbounds i8, ptr %0, i64 56
  %26 = load ptr, ptr %25, align 8
  %27 = load ptr, ptr %24, align 8
  %28 = getelementptr inbounds i8, ptr %27, i64 8
  %29 = load ptr, ptr %28, align 8
  %30 = tail call noundef ptr %29(ptr noundef nonnull align 8 dereferenceable(20) %24, ptr noundef %26, i1 noundef zeroext true) #6
  %31 = load ptr, ptr %30, align 8
  %32 = getelementptr inbounds i8, ptr %31, i64 136
  %33 = load ptr, ptr %32, align 8
  %34 = tail call noundef ptr %33(ptr noundef nonnull align 8 dereferenceable(20) %30) #6
  %35 = load ptr, ptr %34, align 8
  %36 = getelementptr inbounds i8, ptr %35, i64 88
  %37 = load ptr, ptr %36, align 8
  %38 = tail call noundef ptr %37(ptr noundef nonnull align 8 dereferenceable(20) %34) #6
  %39 = icmp eq ptr %38, null
  br i1 %39, label %40, label %_ZNK18ConstraintCastNode5ValueEP8PhaseGVN.exit

40:                                               ; preds = %16
  %41 = load ptr, ptr %25, align 8
  %42 = load ptr, ptr %41, align 8
  %43 = getelementptr inbounds i8, ptr %42, i64 88
  %44 = load ptr, ptr %43, align 8
  %45 = tail call noundef ptr %44(ptr noundef nonnull align 8 dereferenceable(20) %41) #6
  %.not12.i = icmp eq ptr %45, null
  br i1 %.not12.i, label %_ZNK18ConstraintCastNode5ValueEP8PhaseGVN.exit, label %46

46:                                               ; preds = %40
  %47 = load ptr, ptr %24, align 8
  %48 = getelementptr inbounds i8, ptr %47, i64 88
  %49 = load ptr, ptr %48, align 8
  %50 = tail call noundef ptr %49(ptr noundef nonnull align 8 dereferenceable(20) %24) #6
  %.not13.i = icmp eq ptr %50, null
  br i1 %.not13.i, label %_ZNK18ConstraintCastNode5ValueEP8PhaseGVN.exit, label %51

51:                                               ; preds = %46
  %52 = load ptr, ptr %24, align 8
  %53 = getelementptr inbounds i8, ptr %52, i64 8
  %54 = load ptr, ptr %53, align 8
  %55 = tail call noundef ptr %54(ptr noundef nonnull align 8 dereferenceable(20) %24, ptr noundef nonnull %34, i1 noundef zeroext true) #6
  %56 = load ptr, ptr %55, align 8
  %57 = getelementptr inbounds i8, ptr %56, i64 136
  %58 = load ptr, ptr %57, align 8
  %59 = tail call noundef ptr %58(ptr noundef nonnull align 8 dereferenceable(20) %55) #6
  br label %_ZNK18ConstraintCastNode5ValueEP8PhaseGVN.exit

_ZNK18ConstraintCastNode5ValueEP8PhaseGVN.exit:   ; preds = %6, %16, %40, %46, %51
  %.010.i = phi ptr [ %14, %6 ], [ %59, %51 ], [ %34, %46 ], [ %34, %40 ], [ %34, %16 ]
  %60 = load ptr, ptr @_ZN4Type3TOPE, align 8
  %61 = icmp eq ptr %.010.i, %60
  br i1 %61, label %64, label %62

62:                                               ; preds = %_ZNK18ConstraintCastNode5ValueEP8PhaseGVN.exit
  %63 = tail call noundef ptr @_ZNK18ConstraintCastNode10widen_typeEPK8PhaseGVNPK4Type9BasicType(ptr noundef nonnull align 8 dereferenceable(80) %0, ptr noundef nonnull %1, ptr noundef %.010.i, i8 noundef zeroext 11)
  br label %64

64:                                               ; preds = %_ZNK18ConstraintCastNode5ValueEP8PhaseGVN.exit, %62
  %.0 = phi ptr [ %63, %62 ], [ %60, %_ZNK18ConstraintCastNode5ValueEP8PhaseGVN.exit ]
  ret ptr %.0
}